target datalayout = "e-m:e-p270:32:32-p271:32:32-p272:64:64-i64:64-i128:128-f80:128-n8:16:32:64-S128"
target triple = "x86_64-pc-linux-gnu"

%"class.cv::Mat" = type { i32, i32, i32, i32, ptr, ptr, ptr, ptr, ptr, ptr, %"struct.cv::MatSize", %"struct.cv::MatStep" }
%"struct.cv::MatSize" = type { ptr }
%"struct.cv::MatStep" = type { ptr, [2 x i64] }
%"class.cv::ccm::Operations" = type { ptr, %"class.std::vector" }
%"class.std::vector" = type { %"struct.std::_Vector_base" }
%"struct.std::_Vector_base" = type { %"struct.std::_Vector_base<cv::ccm::Operation, std::allocator<cv::ccm::Operation>>::_Vector_impl" }
%"struct.std::_Vector_base<cv::ccm::Operation, std::allocator<cv::ccm::Operation>>::_Vector_impl" = type { %"struct.std::_Vector_base<cv::ccm::Operation, std::allocator<cv::ccm::Operation>>::_Vector_impl_data" }
%"struct.std::_Vector_base<cv::ccm::Operation, std::allocator<cv::ccm::Operation>>::_Vector_impl_data" = type { ptr, ptr, ptr }
%"class.cv::ccm::ColorSpace" = type { ptr, %"class.cv::ccm::IO", %"class.std::__cxx11::basic_string", i8, %"class.cv::ccm::Operations", %"class.cv::ccm::Operations", ptr, ptr }
%"class.cv::ccm::IO" = type { ptr, %"class.std::__cxx11::basic_string", %"class.std::__cxx11::basic_string" }
%"class.std::__cxx11::basic_string" = type { %"struct.std::__cxx11::basic_string<char>::_Alloc_hider", i64, %union.anon }
%"struct.std::__cxx11::basic_string<char>::_Alloc_hider" = type { ptr }
%union.anon = type { i64, [8 x i8] }
%"class.cv::ccm::RGBBase_" = type { %"class.cv::ccm::ColorSpace", double, double, double, double, double, double, %"class.cv::Mat", %"class.cv::Mat" }
%"class.cv::ccm::sRGBBase_" = type { %"class.cv::ccm::RGBBase_", double, double, double, double, double, double }

; Function Attrs: mustprogress nounwind uwtable
define hidden void @_ZN2cv3ccm9sRGBBase_9calLinearEv(ptr noundef nonnull align 8 dereferenceable(488) %0) unnamed_addr #8 align 2 {
  %2 = alloca ptr, align 8
  store ptr %0, ptr %2, align 8, !tbaa !141
  %3 = load ptr, ptr %2, align 8
  %4 = getelementptr inbounds nuw %"class.cv::ccm::sRGBBase_", ptr %3, i32 0, i32 1
  %5 = load double, ptr %4, align 8, !tbaa !143
  %6 = fadd double %5, 1.000000e+00
  %7 = getelementptr inbounds nuw %"class.cv::ccm::sRGBBase_", ptr %3, i32 0, i32 3
  store double %6, ptr %7, align 8, !tbaa !145
  %8 = getelementptr inbounds nuw %"class.cv::ccm::sRGBBase_", ptr %3, i32 0, i32 1
  %9 = load double, ptr %8, align 8, !tbaa !143
  %10 = getelementptr inbounds nuw %"class.cv::ccm::sRGBBase_", ptr %3, i32 0, i32 2
  %11 = load double, ptr %10, align 8, !tbaa !146
  %12 = fsub double %11, 1.000000e+00
  %13 = fdiv double %9, %12
  %14 = getelementptr inbounds nuw %"class.cv::ccm::sRGBBase_", ptr %3, i32 0, i32 6
  store double %13, ptr %14, align 8, !tbaa !147
  %15 = getelementptr inbounds nuw %"class.cv::ccm::sRGBBase_", ptr %3, i32 0, i32 3
  %16 = load double, ptr %15, align 8, !tbaa !145
  %17 = getelementptr inbounds nuw %"class.cv::ccm::sRGBBase_", ptr %3, i32 0, i32 2
  %18 = load double, ptr %17, align 8, !tbaa !146
  %19 = call double @pow(double noundef %16, double noundef %18) #3, !tbaa !122
  %20 = getelementptr inbounds nuw %"class.cv::ccm::sRGBBase_", ptr %3, i32 0, i32 2
  %21 = load double, ptr %20, align 8, !tbaa !146
  %22 = fsub double %21, 1.000000e+00
  %23 = getelementptr inbounds nuw %"class.cv::ccm::sRGBBase_", ptr %3, i32 0, i32 2
  %24 = load double, ptr %23, align 8, !tbaa !146
  %25 = fsub double %24, 1.000000e+00
  %26 = call double @pow(double noundef %22, double noundef %25) #3, !tbaa !122
  %27 = fmul double %19, %26
  %28 = getelementptr inbounds nuw %"class.cv::ccm::sRGBBase_", ptr %3, i32 0, i32 1
  %29 = load double, ptr %28, align 8, !tbaa !143
  %30 = getelementptr inbounds nuw %"class.cv::ccm::sRGBBase_", ptr %3, i32 0, i32 2
  %31 = load double, ptr %30, align 8, !tbaa !146
  %32 = fsub double %31, 1.000000e+00
  %33 = call double @pow(double noundef %29, double noundef %32) #3, !tbaa !122
  %34 = getelementptr inbounds nuw %"class.cv::ccm::sRGBBase_", ptr %3, i32 0, i32 2
  %35 = load double, ptr %34, align 8, !tbaa !146
  %36 = getelementptr inbounds nuw %"class.cv::ccm::sRGBBase_", ptr %3, i32 0, i32 2
  %37 = load double, ptr %36, align 8, !tbaa !146
  %38 = call double @pow(double noundef %35, double noundef %37) #3, !tbaa !122
  %39 = fmul double %33, %38
  %40 = fdiv double %27, %39
  %41 = getelementptr inbounds nuw %"class.cv::ccm::sRGBBase_", ptr %3, i32 0, i32 5
  store double %40, ptr %41, align 8, !tbaa !148
  %42 = getelementptr inbounds nuw %"class.cv::ccm::sRGBBase_", ptr %3, i32 0, i32 6
  %43 = load double, ptr %42, align 8, !tbaa !147
  %44 = getelementptr inbounds nuw %"class.cv::ccm::sRGBBase_", ptr %3, i32 0, i32 5
  %45 = load double, ptr %44, align 8, !tbaa !148
  %46 = fdiv double %43, %45
  %47 = getelementptr inbounds nuw %"class.cv::ccm::sRGBBase_", ptr %3, i32 0, i32 4
  store double %46, ptr %47, align 8, !tbaa !149
  ret void
}