; Function Attrs: mustprogress nofree nounwind willreturn memory(write, argmem: readwrite) uwtable
define hidden void @_ZN2cv3ccm9sRGBBase_9calLinearEv(ptr noundef nonnull align 8 captures(none) dereferenceable(488) initializes((456, 488)) %0) unnamed_addr #8 align 2 {
  %2 = getelementptr inbounds nuw i8, ptr %0, i64 440
  %3 = load double, ptr %2, align 8, !tbaa !127
  %4 = fadd double %3, 1.000000e+00
  %5 = getelementptr inbounds nuw i8, ptr %0, i64 456
  store double %4, ptr %5, align 8, !tbaa !129
  %6 = getelementptr inbounds nuw i8, ptr %0, i64 448
  %7 = load double, ptr %6, align 8, !tbaa !130
  %8 = fadd double %7, -1.000000e+00
  %9 = fdiv double %3, %8
  %10 = getelementptr inbounds nuw i8, ptr %0, i64 480
  store double %9, ptr %10, align 8, !tbaa !131
  %11 = tail call double @pow(double noundef %4, double noundef %7) #35, !tbaa !95
  %12 = tail call double @pow(double noundef %8, double noundef %8) #35, !tbaa !95
  %13 = fmul double %11, %12
  %14 = tail call double @pow(double noundef %3, double noundef %8) #35, !tbaa !95
  %15 = tail call double @pow(double noundef %7, double noundef %7) #35, !tbaa !95
  %16 = fmul double %14, %15
  %17 = fdiv double %13, %16
  %18 = getelementptr inbounds nuw i8, ptr %0, i64 472
  store double %17, ptr %18, align 8, !tbaa !132
  %19 = fdiv double %9, %17
  %20 = getelementptr inbounds nuw i8, ptr %0, i64 464
  store double %19, ptr %20, align 8, !tbaa !133
  ret void
}